; Function Attrs: mustprogress nounwind uwtable
define dso_local noundef ptr @_ZNK5clang6driver9ToolChain11getAssembleEv(ptr noundef nonnull align 8 dereferenceable(2168) %0) local_unnamed_addr #0 align 2 {
  %2 = getelementptr inbounds nuw i8, ptr %0, i64 1696
  %3 = load ptr, ptr %2, align 8
  %.not = icmp eq ptr %3, null
  br i1 %.not, label %4, label %_ZNSt10unique_ptrIN5clang6driver4ToolESt14default_deleteIS2_EE5resetEPS2_.exit

4:                                                ; preds = %1
  %5 = load ptr, ptr %0, align 8
  %6 = load ptr, ptr %5, align 8
  %7 = tail call noundef ptr %6(ptr noundef nonnull align 8 dereferenceable(2168) %0) #25
  %8 = load ptr, ptr %2, align 8
  store ptr %7, ptr %2, align 8
  %.not.i.i = icmp eq ptr %8, null
  br i1 %.not.i.i, label %_ZNSt10unique_ptrIN5clang6driver4ToolESt14default_deleteIS2_EE5resetEPS2_.exit, label %_ZNKSt14default_deleteIN5clang6driver4ToolEEclEPS2_.exit.i.i

_ZNKSt14default_deleteIN5clang6driver4ToolEEclEPS2_.exit.i.i: ; preds = %4
  %9 = load ptr, ptr %8, align 8
  %10 = getelementptr inbounds i8, ptr %9, i64 8
  %11 = load ptr, ptr %10, align 8
  tail call void %11(ptr noundef nonnull align 8 dereferenceable(32) %8) #25
  %.pre = load ptr, ptr %2, align 8
  br label %_ZNSt10unique_ptrIN5clang6driver4ToolESt14default_deleteIS2_EE5resetEPS2_.exit

_ZNSt10unique_ptrIN5clang6driver4ToolESt14default_deleteIS2_EE5resetEPS2_.exit: ; preds = %_ZNKSt14default_deleteIN5clang6driver4ToolEEclEPS2_.exit.i.i, %4, %1
  %12 = phi ptr [ %.pre, %_ZNKSt14default_deleteIN5clang6driver4ToolEEclEPS2_.exit.i.i ], [ %7, %4 ], [ %3, %1 ]
  ret ptr %12
}